target datalayout = "e-m:e-p270:32:32-p271:32:32-p272:64:64-i64:64-i128:128-f80:128-n8:16:32:64-S128"
target triple = "x86_64-unknown-linux-gnu"

%"union.eastl::internal::functor_storage_alignment" = type { { i64, i64 } }
%class.anon.61 = type { i64, i64, i64, i64, i64, i64 }
%"struct.eastl::internal::functor_storage.65" = type { %union.anon.66 }
%union.anon.66 = type { %"union.eastl::internal::functor_storage_alignment", [32 x i8] }

; Function Attrs: mustprogress nounwind uwtable
define internal noundef i64 @"_ZZ22TestFixedFunctionBasicvENK3$_2clEv"(ptr noundef nonnull align 8 dereferenceable(48) %this) #1 align 2 {
entry:
  %this.addr = alloca ptr, align 8
  store ptr %this, ptr %this.addr, align 8
  %this1 = load ptr, ptr %this.addr, align 8
  %0 = getelementptr inbounds %class.anon.61, ptr %this1, i32 0, i32 0
  %1 = load i64, ptr %0, align 8
  %2 = getelementptr inbounds %class.anon.61, ptr %this1, i32 0, i32 1
  %3 = load i64, ptr %2, align 8
  %add = add i64 %1, %3
  %4 = getelementptr inbounds %class.anon.61, ptr %this1, i32 0, i32 2
  %5 = load i64, ptr %4, align 8
  %add2 = add i64 %add, %5
  %6 = getelementptr inbounds %class.anon.61, ptr %this1, i32 0, i32 3
  %7 = load i64, ptr %6, align 8
  %add3 = add i64 %add2, %7
  %8 = getelementptr inbounds %class.anon.61, ptr %this1, i32 0, i32 4
  %9 = load i64, ptr %8, align 8
  %add4 = add i64 %add3, %9
  %10 = getelementptr inbounds %class.anon.61, ptr %this1, i32 0, i32 5
  %11 = load i64, ptr %10, align 8
  %add5 = add i64 %add4, %11
  ret i64 %add5
}

; Function Attrs: mustprogress uwtable
define internal noundef i64 @"_ZN5eastl11invoke_implIRZ22TestFixedFunctionBasicvE3$_2JEEEDTclclsr5eastlE7forwardIT_Efp_Espclsr5eastlE7forwardIT0_Efp0_EEEOS3_DpOS4_"(ptr noundef nonnull align 8 dereferenceable(48) %func) #0 {
entry:
  %func.addr = alloca ptr, align 8
  store ptr %func, ptr %func.addr, align 8
  %0 = load ptr, ptr %func.addr, align 8
  %call = call noundef nonnull align 8 dereferenceable(48) ptr @"_ZN5eastl7forwardIRZ22TestFixedFunctionBasicvE3$_2EEOT_RNS_16remove_referenceIS3_E4typeE"(ptr noundef nonnull align 8 dereferenceable(48) %0) #7
  %call1 = call noundef i64 @"_ZZ22TestFixedFunctionBasicvENK3$_2clEv"(ptr noundef nonnull align 8 dereferenceable(48) %call)
  ret i64 %call1
}

; Function Attrs: mustprogress nounwind uwtable
define internal noundef nonnull align 8 dereferenceable(48) ptr @"_ZN5eastl7forwardIRZ22TestFixedFunctionBasicvE3$_2EEOT_RNS_16remove_referenceIS3_E4typeE"(ptr noundef nonnull align 8 dereferenceable(48) %x) #1 {
entry:
  %x.addr = alloca ptr, align 8
  store ptr %x, ptr %x.addr, align 8
  %0 = load ptr, ptr %x.addr, align 8
  ret ptr %0
}

; Function Attrs: noreturn nounwind uwtable
define linkonce_odr hidden void @__clang_call_terminate(ptr noundef %0) #4 comdat {
  %2 = call ptr @__cxa_begin_catch(ptr %0) #7
  call void @_ZSt9terminatev() #8
  unreachable
}

; Function Attrs: mustprogress nounwind uwtable
define internal noundef nonnull align 8 dereferenceable(48) ptr @"_ZNK5eastl8internal15functor_storageILi48EE17GetStorageTypeRefIZ22TestFixedFunctionBasicvE3$_2EERT_v"(ptr noundef nonnull align 8 dereferenceable(48) %this) #1 align 2 {
entry:
  %this.addr = alloca ptr, align 8
  store ptr %this, ptr %this.addr, align 8
  %this1 = load ptr, ptr %this.addr, align 8
  %0 = getelementptr inbounds %"struct.eastl::internal::functor_storage.65", ptr %this1, i32 0, i32 0
  %arrayidx = getelementptr inbounds [48 x i8], ptr %0, i64 0, i64 0
  ret ptr %arrayidx
}

; Function Attrs: mustprogress uwtable
define internal noundef i64 @"_ZN5eastl6invokeIRZ22TestFixedFunctionBasicvE3$_2JEEEDcOT_DpOT0_"(ptr noundef nonnull align 8 dereferenceable(48) %func) #0 {
entry:
  %func.addr = alloca ptr, align 8
  store ptr %func, ptr %func.addr, align 8
  %0 = load ptr, ptr %func.addr, align 8
  %call = call noundef nonnull align 8 dereferenceable(48) ptr @"_ZN5eastl7forwardIRZ22TestFixedFunctionBasicvE3$_2EEOT_RNS_16remove_referenceIS3_E4typeE"(ptr noundef nonnull align 8 dereferenceable(48) %0) #7
  %call1 = call noundef i64 @"_ZN5eastl11invoke_implIRZ22TestFixedFunctionBasicvE3$_2JEEEDTclclsr5eastlE7forwardIT_Efp_Espclsr5eastlE7forwardIT0_Efp0_EEEOS3_DpOS4_"(ptr noundef nonnull align 8 dereferenceable(48) %call)
  ret i64 %call1
}

; Function Attrs: mustprogress nounwind uwtable
define internal noundef ptr @"_ZN5eastl8internal20function_base_detailILi48EE21function_manager_baseIZ22TestFixedFunctionBasicvE3$_2vE13GetFunctorPtrERKNS0_15functor_storageILi48EEE"(ptr noundef nonnull align 8 dereferenceable(48) %storage) #1 align 2 personality ptr @__gxx_personality_v0 {
entry:
  %storage.addr = alloca ptr, align 8
  store ptr %storage, ptr %storage.addr, align 8
  %0 = load ptr, ptr %storage.addr, align 8
  %call = invoke noundef nonnull align 8 dereferenceable(48) ptr @"_ZNK5eastl8internal15functor_storageILi48EE17GetStorageTypeRefIZ22TestFixedFunctionBasicvE3$_2EERT_v"(ptr noundef nonnull align 8 dereferenceable(48) %0)
          to label %invoke.cont unwind label %terminate.lpad

invoke.cont:                                      ; preds = %entry
  ret ptr %call

terminate.lpad:                                   ; preds = %entry
  %1 = landingpad { ptr, i32 }
          catch ptr null
  %2 = extractvalue { ptr, i32 } %1, 0
  call void @__clang_call_terminate(ptr %2) #8
  unreachable
}

; Function Attrs: mustprogress uwtable
define internal noundef i64 @"_ZN5eastl8internal20function_base_detailILi48EE16function_managerIZ22TestFixedFunctionBasicvE3$_2mJEE7InvokerERKNS0_15functor_storageILi48EEE"(ptr noundef nonnull align 8 dereferenceable(48) %functor) #0 align 2 {
entry:
  %functor.addr = alloca ptr, align 8
  store ptr %functor, ptr %functor.addr, align 8
  %0 = load ptr, ptr %functor.addr, align 8
  %call = call noundef ptr @"_ZN5eastl8internal20function_base_detailILi48EE21function_manager_baseIZ22TestFixedFunctionBasicvE3$_2vE13GetFunctorPtrERKNS0_15functor_storageILi48EEE"(ptr noundef nonnull align 8 dereferenceable(48) %0) #7
  %call1 = call noundef i64 @"_ZN5eastl6invokeIRZ22TestFixedFunctionBasicvE3$_2JEEEDcOT_DpOT0_"(ptr noundef nonnull align 8 dereferenceable(48) %call)
  ret i64 %call1
}