; Function Attrs: mustprogress nofree norecurse nosync nounwind willreturn memory(argmem: read) uwtable
define internal noundef i64 @"_ZN5eastl8internal20function_base_detailILi48EE16function_managerIZ22TestFixedFunctionBasicvE3$_2mJEE7InvokerERKNS0_15functor_storageILi48EEE"(ptr noundef nonnull readonly align 8 captures(none) dereferenceable(48) %functor) #10 align 2 personality ptr @__gxx_personality_v0 {
entry:
  %0 = load i64, ptr %functor, align 8
  %1 = getelementptr inbounds nuw i8, ptr %functor, i64 8
  %2 = load i64, ptr %1, align 8
  %add.i.i.i = add i64 %2, %0
  %3 = getelementptr inbounds nuw i8, ptr %functor, i64 16
  %4 = load i64, ptr %3, align 8
  %add2.i.i.i = add i64 %add.i.i.i, %4
  %5 = getelementptr inbounds nuw i8, ptr %functor, i64 24
  %6 = load i64, ptr %5, align 8
  %add3.i.i.i = add i64 %add2.i.i.i, %6
  %7 = getelementptr inbounds nuw i8, ptr %functor, i64 32
  %8 = load i64, ptr %7, align 8
  %add4.i.i.i = add i64 %add3.i.i.i, %8
  %9 = getelementptr inbounds nuw i8, ptr %functor, i64 40
  %10 = load i64, ptr %9, align 8
  %add5.i.i.i = add i64 %add4.i.i.i, %10
  ret i64 %add5.i.i.i
}